; Function Attrs: nounwind uwtable
define void @validateUniqueTargets(ptr noundef readonly byval(%struct.Qureg) align 8 captures(none) %0, i32 noundef %1, i32 noundef %2, ptr noundef %3) local_unnamed_addr #3 {
  %.sroa.3.0..sroa_idx = getelementptr inbounds nuw i8, ptr %0, i64 4
  %.sroa.3.0.copyload = load i32, ptr %.sroa.3.0..sroa_idx, align 4
  %5 = icmp slt i32 %1, 0
  %6 = icmp sge i32 %1, %.sroa.3.0.copyload
  %.not3.i = select i1 %5, i1 true, i1 %6
  br i1 %.not3.i, label %7, label %validateTarget.exit

7:                                                ; preds = %4
  tail call void @invalidQuESTInputError(ptr noundef nonnull @.str.6, ptr noundef %3)
  br label %validateTarget.exit

validateTarget.exit:                              ; preds = %4, %7
  %8 = icmp slt i32 %2, 0
  %9 = icmp sge i32 %2, %.sroa.3.0.copyload
  %.not3.i6 = select i1 %8, i1 true, i1 %9
  br i1 %.not3.i6, label %10, label %validateTarget.exit7

10:                                               ; preds = %validateTarget.exit
  tail call void @invalidQuESTInputError(ptr noundef nonnull @.str.6, ptr noundef %3)
  br label %validateTarget.exit7

validateTarget.exit7:                             ; preds = %validateTarget.exit, %10
  %.not = icmp eq i32 %1, %2
  br i1 %.not, label %11, label %QuESTAssert.exit

11:                                               ; preds = %validateTarget.exit7
  tail call void @invalidQuESTInputError(ptr noundef nonnull @.str.19, ptr noundef %3)
  br label %QuESTAssert.exit

QuESTAssert.exit:                                 ; preds = %validateTarget.exit7, %11
  ret void
}